target datalayout = "e-m:e-p270:32:32-p271:32:32-p272:64:64-i64:64-i128:128-f80:128-n8:16:32:64-S128"
target triple = "x86_64-pc-linux-gnu"

@hf_mpeg_descr_multilng_network_name_desc_iso639_language_code = internal global i32 0, align 4
@hf_mpeg_descr_multilng_network_name_desc_name_length = internal global i32 0, align 4
@hf_mpeg_descr_multilng_network_name_desc_name_encoding = internal global i32 0, align 4
@hf_mpeg_descr_multilng_network_name_desc_name = internal global i32 0, align 4
@ett_mpeg_descriptor_multilng_network_name_desc_lng = internal global i32 0, align 4
@.str.759 = private unnamed_addr constant [14 x i8] c"Language \22%s\22\00", align 1

; Function Attrs: null_pointer_is_valid sspstrong uwtable
define internal i32 @proto_mpeg_descriptor_dissect_multilng_network_name_desc_measure_lng_len(ptr noundef %0, i32 noundef %1, i32 noundef %2) #1 {
  %4 = alloca i32, align 4
  %5 = alloca ptr, align 8
  %6 = alloca i32, align 4
  %7 = alloca i32, align 4
  %8 = alloca i32, align 4
  %9 = alloca i32, align 4
  %10 = alloca i32, align 4
  %11 = alloca i32, align 4
  store ptr %0, ptr %5, align 8
  store i32 %1, ptr %6, align 4
  store i32 %2, ptr %7, align 4
  call void @llvm.lifetime.start.p0(i64 4, ptr %8) #4
  %12 = load i32, ptr %6, align 4
  store i32 %12, ptr %8, align 4
  call void @llvm.lifetime.start.p0(i64 4, ptr %9) #4
  %13 = load i32, ptr %7, align 4
  store i32 %13, ptr %9, align 4
  %14 = load i32, ptr %9, align 4
  %15 = icmp ult i32 %14, 3
  br i1 %15, label %16, label %20

16:                                               ; preds = %3
  %17 = load i32, ptr %8, align 4
  %18 = load i32, ptr %6, align 4
  %19 = sub i32 %17, %18
  store i32 %19, ptr %4, align 4
  store i32 1, ptr %10, align 4
  br label %55

20:                                               ; preds = %3
  %21 = load i32, ptr %9, align 4
  %22 = sub i32 %21, 3
  store i32 %22, ptr %9, align 4
  %23 = load i32, ptr %8, align 4
  %24 = add i32 %23, 3
  store i32 %24, ptr %8, align 4
  %25 = load i32, ptr %9, align 4
  %26 = icmp ult i32 %25, 1
  br i1 %26, label %27, label %31

27:                                               ; preds = %20
  %28 = load i32, ptr %8, align 4
  %29 = load i32, ptr %6, align 4
  %30 = sub i32 %28, %29
  store i32 %30, ptr %4, align 4
  store i32 1, ptr %10, align 4
  br label %55

31:                                               ; preds = %20
  call void @llvm.lifetime.start.p0(i64 4, ptr %11) #4
  %32 = load ptr, ptr %5, align 8
  %33 = load i32, ptr %8, align 4
  %34 = call zeroext i8 @tvb_get_uint8(ptr noundef %32, i32 noundef %33)
  %35 = zext i8 %34 to i32
  store i32 %35, ptr %11, align 4
  %36 = load i32, ptr %9, align 4
  %37 = sub i32 %36, 1
  store i32 %37, ptr %9, align 4
  %38 = load i32, ptr %8, align 4
  %39 = add i32 %38, 1
  store i32 %39, ptr %8, align 4
  %40 = load i32, ptr %11, align 4
  %41 = load i32, ptr %9, align 4
  %42 = icmp ult i32 %40, %41
  br i1 %42, label %43, label %45

43:                                               ; preds = %31
  %44 = load i32, ptr %11, align 4
  br label %47

45:                                               ; preds = %31
  %46 = load i32, ptr %9, align 4
  br label %47

47:                                               ; preds = %45, %43
  %48 = phi i32 [ %44, %43 ], [ %46, %45 ]
  store i32 %48, ptr %11, align 4
  %49 = load i32, ptr %11, align 4
  %50 = load i32, ptr %8, align 4
  %51 = add i32 %50, %49
  store i32 %51, ptr %8, align 4
  %52 = load i32, ptr %8, align 4
  %53 = load i32, ptr %6, align 4
  %54 = sub i32 %52, %53
  store i32 %54, ptr %4, align 4
  store i32 1, ptr %10, align 4
  call void @llvm.lifetime.end.p0(i64 4, ptr %11) #4
  br label %55

55:                                               ; preds = %47, %27, %16
  call void @llvm.lifetime.end.p0(i64 4, ptr %9) #4
  call void @llvm.lifetime.end.p0(i64 4, ptr %8) #4
  %56 = load i32, ptr %4, align 4
  ret i32 %56
}

; Function Attrs: null_pointer_is_valid sspstrong uwtable
define internal void @proto_mpeg_descriptor_dissect_multilng_network_name_desc(ptr noundef %0, i32 noundef %1, i32 noundef %2, ptr noundef %3) #1 {
  %5 = alloca ptr, align 8
  %6 = alloca i32, align 4
  %7 = alloca i32, align 4
  %8 = alloca ptr, align 8
  %9 = alloca i32, align 4
  %10 = alloca ptr, align 8
  %11 = alloca ptr, align 8
  %12 = alloca ptr, align 8
  %13 = alloca i32, align 4
  %14 = alloca i32, align 4
  %15 = alloca i32, align 4
  %16 = alloca i32, align 4
  %17 = alloca i32, align 4
  store ptr %0, ptr %5, align 8
  store i32 %1, ptr %6, align 4
  store i32 %2, ptr %7, align 4
  store ptr %3, ptr %8, align 8
  call void @llvm.lifetime.start.p0(i64 4, ptr %9) #4
  %18 = load i32, ptr %7, align 4
  store i32 %18, ptr %9, align 4
  br label %19

19:                                               ; preds = %112, %4
  %20 = load i32, ptr %9, align 4
  %21 = icmp ugt i32 %20, 0
  br i1 %21, label %22, label %113

22:                                               ; preds = %19
  call void @llvm.lifetime.start.p0(i64 8, ptr %10) #4
  call void @llvm.lifetime.start.p0(i64 8, ptr %11) #4
  call void @llvm.lifetime.start.p0(i64 8, ptr %12) #4
  %23 = load i32, ptr %9, align 4
  %24 = icmp ult i32 %23, 3
  br i1 %24, label %25, label %26

25:                                               ; preds = %22
  store i32 1, ptr %13, align 4
  br label %110

26:                                               ; preds = %22
  call void @llvm.lifetime.start.p0(i64 4, ptr %14) #4
  %27 = load ptr, ptr %5, align 8
  %28 = load i32, ptr %6, align 4
  %29 = load i32, ptr %9, align 4
  %30 = call i32 @proto_mpeg_descriptor_dissect_multilng_network_name_desc_measure_lng_len(ptr noundef %27, i32 noundef %28, i32 noundef %29)
  store i32 %30, ptr %14, align 4
  %31 = load ptr, ptr %8, align 8
  %32 = load ptr, ptr %5, align 8
  %33 = load i32, ptr %6, align 4
  %34 = load i32, ptr %14, align 4
  %35 = load i32, ptr @ett_mpeg_descriptor_multilng_network_name_desc_lng, align 4
  %36 = call ptr @proto_tree_add_subtree(ptr noundef %31, ptr noundef %32, i32 noundef %33, i32 noundef %34, i32 noundef %35, ptr noundef %12, ptr noundef null)
  store ptr %36, ptr %11, align 8
  %37 = load ptr, ptr %11, align 8
  %38 = load i32, ptr @hf_mpeg_descr_multilng_network_name_desc_iso639_language_code, align 4
  %39 = load ptr, ptr %5, align 8
  %40 = load i32, ptr %6, align 4
  %41 = call ptr @wmem_packet_scope()
  %42 = call ptr @proto_tree_add_item_ret_display_string(ptr noundef %37, i32 noundef %38, ptr noundef %39, i32 noundef %40, i32 noundef 3, i32 noundef 0, ptr noundef %41, ptr noundef %10)
  %43 = load ptr, ptr %12, align 8
  %44 = load ptr, ptr %10, align 8
  call void (ptr, ptr, ...) @proto_item_set_text(ptr noundef %43, ptr noundef @.str.759, ptr noundef %44)
  %45 = load i32, ptr %6, align 4
  %46 = add i32 %45, 3
  store i32 %46, ptr %6, align 4
  %47 = load i32, ptr %9, align 4
  %48 = sub i32 %47, 3
  store i32 %48, ptr %9, align 4
  %49 = load i32, ptr %9, align 4
  %50 = icmp ult i32 %49, 1
  br i1 %50, label %51, label %52

51:                                               ; preds = %26
  store i32 1, ptr %13, align 4
  br label %109

52:                                               ; preds = %26
  call void @llvm.lifetime.start.p0(i64 4, ptr %15) #4
  %53 = load ptr, ptr %5, align 8
  %54 = load i32, ptr %6, align 4
  %55 = call zeroext i8 @tvb_get_uint8(ptr noundef %53, i32 noundef %54)
  %56 = zext i8 %55 to i32
  store i32 %56, ptr %15, align 4
  %57 = load ptr, ptr %11, align 8
  %58 = load i32, ptr @hf_mpeg_descr_multilng_network_name_desc_name_length, align 4
  %59 = load ptr, ptr %5, align 8
  %60 = load i32, ptr %6, align 4
  %61 = call ptr @proto_tree_add_item(ptr noundef %57, i32 noundef %58, ptr noundef %59, i32 noundef %60, i32 noundef 1, i32 noundef 0)
  %62 = load i32, ptr %6, align 4
  %63 = add i32 %62, 1
  store i32 %63, ptr %6, align 4
  %64 = load i32, ptr %9, align 4
  %65 = sub i32 %64, 1
  store i32 %65, ptr %9, align 4
  %66 = load i32, ptr %15, align 4
  %67 = load i32, ptr %9, align 4
  %68 = icmp ult i32 %66, %67
  br i1 %68, label %69, label %71

69:                                               ; preds = %52
  %70 = load i32, ptr %15, align 4
  br label %73

71:                                               ; preds = %52
  %72 = load i32, ptr %9, align 4
  br label %73

73:                                               ; preds = %71, %69
  %74 = phi i32 [ %70, %69 ], [ %72, %71 ]
  store i32 %74, ptr %15, align 4
  %75 = load i32, ptr %9, align 4
  %76 = load i32, ptr %15, align 4
  %77 = icmp ult i32 %75, %76
  br i1 %77, label %78, label %79

78:                                               ; preds = %73
  store i32 1, ptr %13, align 4
  br label %108

79:                                               ; preds = %73
  call void @llvm.lifetime.start.p0(i64 4, ptr %16) #4
  call void @llvm.lifetime.start.p0(i64 4, ptr %17) #4
  %80 = load ptr, ptr %5, align 8
  %81 = load i32, ptr %6, align 4
  %82 = load i32, ptr %15, align 4
  %83 = call i32 @dvb_analyze_string_charset(ptr noundef %80, i32 noundef %81, i32 noundef %82, ptr noundef %16)
  store i32 %83, ptr %17, align 4
  %84 = load ptr, ptr %11, align 8
  %85 = load i32, ptr @hf_mpeg_descr_multilng_network_name_desc_name_encoding, align 4
  %86 = load ptr, ptr %5, align 8
  %87 = load i32, ptr %6, align 4
  %88 = load i32, ptr %17, align 4
  %89 = load i32, ptr %16, align 4
  call void @dvb_add_chartbl(ptr noundef %84, i32 noundef %85, ptr noundef %86, i32 noundef %87, i32 noundef %88, i32 noundef %89)
  %90 = load ptr, ptr %11, align 8
  %91 = load i32, ptr @hf_mpeg_descr_multilng_network_name_desc_name, align 4
  %92 = load ptr, ptr %5, align 8
  %93 = load i32, ptr %6, align 4
  %94 = load i32, ptr %17, align 4
  %95 = add i32 %93, %94
  %96 = load i32, ptr %15, align 4
  %97 = load i32, ptr %17, align 4
  %98 = sub i32 %96, %97
  %99 = load i32, ptr %16, align 4
  %100 = call i32 @dvb_enc_to_item_enc(i32 noundef %99)
  %101 = call ptr @proto_tree_add_item(ptr noundef %90, i32 noundef %91, ptr noundef %92, i32 noundef %95, i32 noundef %98, i32 noundef %100)
  %102 = load i32, ptr %15, align 4
  %103 = load i32, ptr %6, align 4
  %104 = add i32 %103, %102
  store i32 %104, ptr %6, align 4
  %105 = load i32, ptr %15, align 4
  %106 = load i32, ptr %9, align 4
  %107 = sub i32 %106, %105
  store i32 %107, ptr %9, align 4
  call void @llvm.lifetime.end.p0(i64 4, ptr %17) #4
  call void @llvm.lifetime.end.p0(i64 4, ptr %16) #4
  store i32 0, ptr %13, align 4
  br label %108

108:                                              ; preds = %79, %78
  call void @llvm.lifetime.end.p0(i64 4, ptr %15) #4
  br label %109

109:                                              ; preds = %108, %51
  call void @llvm.lifetime.end.p0(i64 4, ptr %14) #4
  br label %110

110:                                              ; preds = %109, %25
  call void @llvm.lifetime.end.p0(i64 8, ptr %12) #4
  call void @llvm.lifetime.end.p0(i64 8, ptr %11) #4
  call void @llvm.lifetime.end.p0(i64 8, ptr %10) #4
  %111 = load i32, ptr %13, align 4
  switch i32 %111, label %114 [
    i32 0, label %112
  ]

112:                                              ; preds = %110
  br label %19, !llvm.loop !22

113:                                              ; preds = %19
  store i32 0, ptr %13, align 4
  br label %114

114:                                              ; preds = %113, %110
  call void @llvm.lifetime.end.p0(i64 4, ptr %9) #4
  %115 = load i32, ptr %13, align 4
  switch i32 %115, label %117 [
    i32 0, label %116
    i32 1, label %116
  ]

116:                                              ; preds = %114, %114
  ret void

117:                                              ; preds = %114
  unreachable
}